target datalayout = "e-m:e-p270:32:32-p271:32:32-p272:64:64-i64:64-i128:128-f80:128-n8:16:32:64-S128"
target triple = "x86_64-pc-linux-gnu"

%struct.FT_Vector_ = type { i64, i64 }
%struct.FT_FaceRec_ = type { i64, i64, i64, i64, i64, ptr, ptr, i32, ptr, i32, ptr, %struct.FT_Generic_, %struct.FT_BBox_, i16, i16, i16, i16, i16, i16, i16, i16, ptr, ptr, ptr, ptr, ptr, ptr, %struct.FT_ListRec_, %struct.FT_Generic_, ptr, ptr }
%struct.FT_BBox_ = type { i64, i64, i64, i64 }
%struct.FT_ListRec_ = type { ptr, ptr }
%struct.FT_Generic_ = type { ptr, ptr }
%struct.FT_GlyphSlotRec_ = type { ptr, ptr, ptr, i32, %struct.FT_Generic_, %struct.FT_Glyph_Metrics_, i64, i64, %struct.FT_Vector_, i32, %struct.FT_Bitmap_, i32, i32, %struct.FT_Outline_, i32, ptr, ptr, i64, i64, i64, ptr, ptr }
%struct.FT_Glyph_Metrics_ = type { i64, i64, i64, i64, i64, i64, i64, i64 }
%struct.FT_Bitmap_ = type { i32, i32, i32, ptr, i16, i8, i8, ptr }
%struct.FT_Outline_ = type { i16, i16, ptr, ptr, ptr, i32 }
%struct.FT_Matrix_ = type { i64, i64, i64, i64 }
%struct.FT_Slot_InternalRec_ = type { ptr, i32, i8, %struct.FT_Matrix_, %struct.FT_Vector_, ptr, i32 }
%struct.FT_MemoryRec_ = type { ptr, ptr, ptr, ptr }

; Function Attrs: nounwind uwtable
define hidden ptr @ft_mem_qalloc(ptr noundef %0, i64 noundef %1, ptr noundef %2) #0 {
  %4 = alloca ptr, align 8
  %5 = alloca i64, align 8
  %6 = alloca ptr, align 8
  %7 = alloca i32, align 4
  %8 = alloca ptr, align 8
  store ptr %0, ptr %4, align 8, !tbaa !185
  store i64 %1, ptr %5, align 8, !tbaa !47
  store ptr %2, ptr %6, align 8, !tbaa !164
  call void @llvm.lifetime.start.p0(i64 4, ptr %7) #10
  store i32 0, ptr %7, align 4, !tbaa !8
  call void @llvm.lifetime.start.p0(i64 8, ptr %8) #10
  store ptr null, ptr %8, align 8, !tbaa !41
  %9 = load i64, ptr %5, align 8, !tbaa !47
  %10 = icmp sgt i64 %9, 0
  br i1 %10, label %11, label %22

11:                                               ; preds = %3
  %12 = load ptr, ptr %4, align 8, !tbaa !185
  %13 = getelementptr inbounds nuw %struct.FT_MemoryRec_, ptr %12, i32 0, i32 1
  %14 = load ptr, ptr %13, align 8, !tbaa !408
  %15 = load ptr, ptr %4, align 8, !tbaa !185
  %16 = load i64, ptr %5, align 8, !tbaa !47
  %17 = call ptr %14(ptr noundef %15, i64 noundef %16)
  store ptr %17, ptr %8, align 8, !tbaa !41
  %18 = load ptr, ptr %8, align 8, !tbaa !41
  %19 = icmp ne ptr %18, null
  br i1 %19, label %21, label %20

20:                                               ; preds = %11
  store i32 64, ptr %7, align 4, !tbaa !8
  br label %21

21:                                               ; preds = %20, %11
  br label %27

22:                                               ; preds = %3
  %23 = load i64, ptr %5, align 8, !tbaa !47
  %24 = icmp slt i64 %23, 0
  br i1 %24, label %25, label %26

25:                                               ; preds = %22
  store i32 6, ptr %7, align 4, !tbaa !8
  br label %26

26:                                               ; preds = %25, %22
  br label %27

27:                                               ; preds = %26, %21
  %28 = load i32, ptr %7, align 4, !tbaa !8
  %29 = load ptr, ptr %6, align 8, !tbaa !164
  store i32 %28, ptr %29, align 4, !tbaa !8
  %30 = load ptr, ptr %8, align 8, !tbaa !41
  call void @llvm.lifetime.end.p0(i64 8, ptr %8) #10
  call void @llvm.lifetime.end.p0(i64 4, ptr %7) #10
  ret ptr %30
}

; Function Attrs: nounwind uwtable
define hidden ptr @ft_mem_alloc(ptr noundef %0, i64 noundef %1, ptr noundef %2) #0 {
  %4 = alloca ptr, align 8
  %5 = alloca i64, align 8
  %6 = alloca ptr, align 8
  %7 = alloca i32, align 4
  %8 = alloca ptr, align 8
  store ptr %0, ptr %4, align 8, !tbaa !185
  store i64 %1, ptr %5, align 8, !tbaa !47
  store ptr %2, ptr %6, align 8, !tbaa !164
  call void @llvm.lifetime.start.p0(i64 4, ptr %7) #10
  call void @llvm.lifetime.start.p0(i64 8, ptr %8) #10
  %9 = load ptr, ptr %4, align 8, !tbaa !185
  %10 = load i64, ptr %5, align 8, !tbaa !47
  %11 = call ptr @ft_mem_qalloc(ptr noundef %9, i64 noundef %10, ptr noundef %7)
  store ptr %11, ptr %8, align 8, !tbaa !41
  %12 = load i32, ptr %7, align 4, !tbaa !8
  %13 = icmp ne i32 %12, 0
  br i1 %13, label %23, label %14

14:                                               ; preds = %3
  %15 = load ptr, ptr %8, align 8, !tbaa !41
  %16 = icmp ne ptr %15, null
  br i1 %16, label %17, label %23

17:                                               ; preds = %14
  %18 = load i64, ptr %5, align 8, !tbaa !47
  %19 = icmp sgt i64 %18, 0
  br i1 %19, label %20, label %23

20:                                               ; preds = %17
  %21 = load ptr, ptr %8, align 8, !tbaa !41
  %22 = load i64, ptr %5, align 8, !tbaa !47
  call void @llvm.memset.p0.i64(ptr align 1 %21, i8 0, i64 %22, i1 false)
  br label %23

23:                                               ; preds = %20, %17, %14, %3
  %24 = load i32, ptr %7, align 4, !tbaa !8
  %25 = load ptr, ptr %6, align 8, !tbaa !164
  store i32 %24, ptr %25, align 4, !tbaa !8
  %26 = load ptr, ptr %8, align 8, !tbaa !41
  call void @llvm.lifetime.end.p0(i64 8, ptr %8) #10
  call void @llvm.lifetime.end.p0(i64 4, ptr %7) #10
  ret ptr %26
}

; Function Attrs: nounwind uwtable
define hidden void @ft_mem_free(ptr noundef %0, ptr noundef %1) #0 {
  %3 = alloca ptr, align 8
  %4 = alloca ptr, align 8
  store ptr %0, ptr %3, align 8, !tbaa !185
  store ptr %1, ptr %4, align 8, !tbaa !41
  %5 = load ptr, ptr %4, align 8, !tbaa !41
  %6 = icmp ne ptr %5, null
  br i1 %6, label %7, label %13

7:                                                ; preds = %2
  %8 = load ptr, ptr %3, align 8, !tbaa !185
  %9 = getelementptr inbounds nuw %struct.FT_MemoryRec_, ptr %8, i32 0, i32 2
  %10 = load ptr, ptr %9, align 8, !tbaa !209
  %11 = load ptr, ptr %3, align 8, !tbaa !185
  %12 = load ptr, ptr %4, align 8, !tbaa !41
  call void %10(ptr noundef %11, ptr noundef %12)
  br label %13

13:                                               ; preds = %7, %2
  ret void
}

; Function Attrs: nounwind uwtable
define hidden i32 @ft_glyphslot_alloc_bitmap(ptr noundef %0, i64 noundef %1) #0 {
  %3 = alloca ptr, align 8
  %4 = alloca i64, align 8
  %5 = alloca ptr, align 8
  %6 = alloca i32, align 4
  store ptr %0, ptr %3, align 8, !tbaa !67
  store i64 %1, ptr %4, align 8, !tbaa !47
  call void @llvm.lifetime.start.p0(i64 8, ptr %5) #10
  %7 = load ptr, ptr %3, align 8, !tbaa !67
  %8 = getelementptr inbounds nuw %struct.FT_GlyphSlotRec_, ptr %7, i32 0, i32 1
  %9 = load ptr, ptr %8, align 8, !tbaa !286
  %10 = getelementptr inbounds nuw %struct.FT_FaceRec_, ptr %9, i32 0, i32 25
  %11 = load ptr, ptr %10, align 8, !tbaa !287
  store ptr %11, ptr %5, align 8, !tbaa !185
  call void @llvm.lifetime.start.p0(i64 4, ptr %6) #10
  %12 = load ptr, ptr %3, align 8, !tbaa !67
  %13 = getelementptr inbounds nuw %struct.FT_GlyphSlotRec_, ptr %12, i32 0, i32 21
  %14 = load ptr, ptr %13, align 8, !tbaa !147
  %15 = getelementptr inbounds nuw %struct.FT_Slot_InternalRec_, ptr %14, i32 0, i32 1
  %16 = load i32, ptr %15, align 8, !tbaa !285
  %17 = and i32 %16, 1
  %18 = icmp ne i32 %17, 0
  br i1 %18, label %19, label %31

19:                                               ; preds = %2
  br label %20

20:                                               ; preds = %19
  %21 = load ptr, ptr %5, align 8, !tbaa !185
  %22 = load ptr, ptr %3, align 8, !tbaa !67
  %23 = getelementptr inbounds nuw %struct.FT_GlyphSlotRec_, ptr %22, i32 0, i32 10
  %24 = getelementptr inbounds nuw %struct.FT_Bitmap_, ptr %23, i32 0, i32 3
  %25 = load ptr, ptr %24, align 8, !tbaa !288
  call void @ft_mem_free(ptr noundef %21, ptr noundef %25)
  %26 = load ptr, ptr %3, align 8, !tbaa !67
  %27 = getelementptr inbounds nuw %struct.FT_GlyphSlotRec_, ptr %26, i32 0, i32 10
  %28 = getelementptr inbounds nuw %struct.FT_Bitmap_, ptr %27, i32 0, i32 3
  store ptr null, ptr %28, align 8, !tbaa !288
  br label %29

29:                                               ; preds = %20
  br label %30

30:                                               ; preds = %29
  br label %38

31:                                               ; preds = %2
  %32 = load ptr, ptr %3, align 8, !tbaa !67
  %33 = getelementptr inbounds nuw %struct.FT_GlyphSlotRec_, ptr %32, i32 0, i32 21
  %34 = load ptr, ptr %33, align 8, !tbaa !147
  %35 = getelementptr inbounds nuw %struct.FT_Slot_InternalRec_, ptr %34, i32 0, i32 1
  %36 = load i32, ptr %35, align 8, !tbaa !285
  %37 = or i32 %36, 1
  store i32 %37, ptr %35, align 8, !tbaa !285
  br label %38

38:                                               ; preds = %31, %30
  %39 = load ptr, ptr %5, align 8, !tbaa !185
  %40 = load i64, ptr %4, align 8, !tbaa !47
  %41 = call ptr @ft_mem_alloc(ptr noundef %39, i64 noundef %40, ptr noundef %6)
  %42 = load ptr, ptr %3, align 8, !tbaa !67
  %43 = getelementptr inbounds nuw %struct.FT_GlyphSlotRec_, ptr %42, i32 0, i32 10
  %44 = getelementptr inbounds nuw %struct.FT_Bitmap_, ptr %43, i32 0, i32 3
  store ptr %41, ptr %44, align 8, !tbaa !288
  %45 = load i32, ptr %6, align 4, !tbaa !8
  call void @llvm.lifetime.end.p0(i64 4, ptr %6) #10
  call void @llvm.lifetime.end.p0(i64 8, ptr %5) #10
  ret i32 %45
}