; Function Attrs: nounwind uwtable
define hidden range(i32 0, 65) i32 @ft_glyphslot_alloc_bitmap(ptr noundef captures(none) %0, i64 noundef %1) local_unnamed_addr #0 {
  %3 = getelementptr inbounds nuw i8, ptr %0, i64 8
  %4 = load ptr, ptr %3, align 8, !tbaa !59
  %5 = getelementptr inbounds nuw i8, ptr %4, i64 184
  %6 = load ptr, ptr %5, align 8, !tbaa !60
  %7 = getelementptr inbounds nuw i8, ptr %0, i64 296
  %8 = load ptr, ptr %7, align 8, !tbaa !54
  %9 = getelementptr inbounds nuw i8, ptr %8, i64 8
  %10 = load i32, ptr %9, align 8, !tbaa !55
  %11 = and i32 %10, 1
  %.not = icmp eq i32 %11, 0
  br i1 %.not, label %18, label %12

12:                                               ; preds = %2
  %13 = getelementptr inbounds nuw i8, ptr %0, i64 168
  %14 = load ptr, ptr %13, align 8, !tbaa !58
  %.not.i = icmp eq ptr %14, null
  br i1 %.not.i, label %ft_mem_free.exit, label %15

15:                                               ; preds = %12
  %16 = getelementptr inbounds nuw i8, ptr %6, i64 16
  %17 = load ptr, ptr %16, align 8, !tbaa !61
  tail call void %17(ptr noundef %6, ptr noundef nonnull %14) #34
  br label %ft_mem_free.exit

ft_mem_free.exit:                                 ; preds = %12, %15
  store ptr null, ptr %13, align 8, !tbaa !58
  br label %20

18:                                               ; preds = %2
  %19 = or disjoint i32 %10, 1
  store i32 %19, ptr %9, align 8, !tbaa !55
  br label %20

20:                                               ; preds = %18, %ft_mem_free.exit
  %21 = icmp sgt i64 %1, 0
  br i1 %21, label %ft_mem_qalloc.exit.i, label %ft_mem_qalloc.exit.thread.i

ft_mem_qalloc.exit.thread.i:                      ; preds = %20
  %.not14.i.i = icmp eq i64 %1, 0
  %spec.select13.i.i = select i1 %.not14.i.i, i32 0, i32 6
  br label %ft_mem_alloc.exit

ft_mem_qalloc.exit.i:                             ; preds = %20
  %22 = getelementptr inbounds nuw i8, ptr %6, i64 8
  %23 = load ptr, ptr %22, align 8, !tbaa !179
  %24 = tail call ptr %23(ptr noundef %6, i64 noundef %1) #34
  %.not.i.not.i = icmp eq ptr %24, null
  br i1 %.not.i.not.i, label %ft_mem_alloc.exit, label %25

25:                                               ; preds = %ft_mem_qalloc.exit.i
  tail call void @llvm.memset.p0.i64(ptr nonnull align 1 %24, i8 0, i64 %1, i1 false)
  br label %ft_mem_alloc.exit

ft_mem_alloc.exit:                                ; preds = %ft_mem_qalloc.exit.thread.i, %ft_mem_qalloc.exit.i, %25
  %.0.i17.i = phi ptr [ null, %ft_mem_qalloc.exit.thread.i ], [ %24, %25 ], [ null, %ft_mem_qalloc.exit.i ]
  %.08.i16.i = phi i32 [ %spec.select13.i.i, %ft_mem_qalloc.exit.thread.i ], [ 0, %25 ], [ 64, %ft_mem_qalloc.exit.i ]
  %26 = getelementptr inbounds nuw i8, ptr %0, i64 168
  store ptr %.0.i17.i, ptr %26, align 8, !tbaa !58
  ret i32 %.08.i16.i
}